; Function Attrs: nounwind sspstrong uwtable
define internal noundef i64 @expstr_initialize(i64 noundef %0, i64 noundef %1) #0 {
  %3 = icmp eq i64 %1, 4
  br i1 %3, label %Check_Type.exit, label %4

4:                                                ; preds = %2
  %5 = icmp eq i64 %1, 0
  %6 = and i64 %1, 7
  %7 = icmp ne i64 %6, 0
  %8 = or i1 %5, %7
  br i1 %8, label %rbimpl_RB_TYPE_P_fastpath.exit.thread.i, label %9, !prof !38

9:                                                ; preds = %4
  %10 = inttoptr i64 %1 to ptr
  %11 = load i64, ptr %10, align 8, !tbaa !39
  %12 = and i64 %11, 31
  %13 = icmp eq i64 %12, 5
  br i1 %13, label %Check_Type.exit, label %rbimpl_RB_TYPE_P_fastpath.exit.thread.i, !prof !41

rbimpl_RB_TYPE_P_fastpath.exit.thread.i:          ; preds = %9, %4
  tail call void @rb_unexpected_type(i64 noundef %1, i32 noundef 5) #10
  unreachable

Check_Type.exit:                                  ; preds = %9, %2
  %14 = load i64, ptr @id_str, align 8, !tbaa !6
  %15 = tail call i64 @rb_ivar_set(i64 noundef %0, i64 noundef %14, i64 noundef %1) #9
  ret i64 4
}